target datalayout = "e-m:e-p270:32:32-p271:32:32-p272:64:64-i64:64-i128:128-f80:128-n8:16:32:64-S128"
target triple = "x86_64-pc-linux-gnu"

%struct.H5FS_t = type { %struct.H5C_cache_entry_t, i64, i64, i64, i64, i32, i16, i32, i32, i32, i64, i64, i64, i64, i32, i64, i64, ptr, i8, i32, i8, i8, i32, i64, i64, i64, ptr }
%struct.H5C_cache_entry_t = type { ptr, i64, i64, ptr, i8, ptr, i8, i8, i8, i8, i32, i8, i8, i8, i8, i8, i32, ptr, i32, i32, i32, i32, i32, i8, i8, ptr, ptr, ptr, ptr, ptr, ptr, i8, i32, i8, i64, ptr, i64, i64, i32, i8, i32, i32, i8, ptr, ptr, ptr }
%struct.H5FS_sinfo_t = type { %struct.H5C_cache_entry_t, ptr, i8, i32, i64, i64, i64, i64, i32, i32, i32, ptr, ptr }
%struct.H5FS_section_info_t = type { i64, i64, i32, i32 }
%struct.H5FS_section_class_t = type { i32, i64, i32, ptr, ptr, ptr, ptr, ptr, ptr, ptr, ptr, ptr, ptr, ptr, ptr, ptr, ptr }

@.str.3 = private unnamed_addr constant [105 x i8] c"generated/home/dtcxzyw/WorkSpace/Projects/compilers/llvm-opt-benchmark/bench/hdf5/hdf5/src/H5FSsection.c\00", align 1
@H5E_FSPACE_g = external global i64, align 8
@H5E_CANTGET_g = external global i64, align 8
@.str.7 = private unnamed_addr constant [23 x i8] c"can't get section info\00", align 1
@H5E_CANTRELEASE_g = external global i64, align 8
@.str.9 = private unnamed_addr constant [27 x i8] c"can't release section info\00", align 1
@H5E_CANTINSERT_g = external global i64, align 8
@.str.13 = private unnamed_addr constant [51 x i8] c"can't remove section from internal data structures\00", align 1
@__func__.H5FS_sect_try_shrink_eoa = private unnamed_addr constant [25 x i8] c"H5FS_sect_try_shrink_eoa\00", align 1
@H5E_CANTSHRINK_g = external global i64, align 8
@.str.21 = private unnamed_addr constant [36 x i8] c"can't check for shrinking container\00", align 1
@.str.22 = private unnamed_addr constant [34 x i8] c"can't shrink free space container\00", align 1

; Function Attrs: nounwind uwtable
define i32 @H5FS_sect_try_shrink_eoa(ptr noundef %0, ptr noundef %1, ptr noundef %2) #0 {
  %4 = alloca ptr, align 8
  %5 = alloca ptr, align 8
  %6 = alloca ptr, align 8
  %7 = alloca i8, align 1
  %8 = alloca i8, align 1
  %9 = alloca i32, align 4
  %10 = alloca i8, align 1
  %11 = alloca ptr, align 8
  %12 = alloca ptr, align 8
  %13 = alloca ptr, align 8
  store ptr %0, ptr %4, align 8
  store ptr %1, ptr %5, align 8
  store ptr %2, ptr %6, align 8
  store i8 0, ptr %7, align 1
  store i8 0, ptr %8, align 1
  store i32 0, ptr %9, align 4
  store i8 0, ptr %10, align 1
  %14 = load ptr, ptr %4, align 8
  %15 = load ptr, ptr %5, align 8
  %16 = call i32 @H5FS__sinfo_lock(ptr noundef %14, ptr noundef %15, i32 noundef 0)
  %17 = icmp slt i32 %16, 0
  br i1 %17, label %18, label %33

18:                                               ; preds = %3
  br label %19

19:                                               ; preds = %18
  br label %20

20:                                               ; preds = %19
  br label %21

21:                                               ; preds = %20
  %22 = load i64, ptr @H5E_FSPACE_g, align 8
  %23 = load i64, ptr @H5E_CANTGET_g, align 8
  %24 = call i32 (ptr, ptr, i32, i64, i64, ptr, ...) @H5E_printf_stack(ptr noundef @.str.3, ptr noundef @__func__.H5FS_sect_try_shrink_eoa, i32 noundef 2228, i64 noundef %22, i64 noundef %23, ptr noundef @.str.7)
  br label %25

25:                                               ; preds = %21
  store i8 1, ptr %10, align 1
  %26 = load i8, ptr %10, align 1
  %27 = trunc i8 %26 to i1
  %28 = zext i1 %27 to i8
  store i8 %28, ptr %10, align 1
  br label %29

29:                                               ; preds = %25
  br label %30

30:                                               ; preds = %29
  store i32 -1, ptr %9, align 4
  br label %141

31:                                               ; No predecessors!
  br label %32

32:                                               ; preds = %31
  br label %33

33:                                               ; preds = %32, %3
  store i8 1, ptr %7, align 1
  %34 = load ptr, ptr %5, align 8
  %35 = getelementptr inbounds %struct.H5FS_t, ptr %34, i32 0, i32 17
  %36 = load ptr, ptr %35, align 8
  %37 = icmp ne ptr %36, null
  br i1 %37, label %38, label %140

38:                                               ; preds = %33
  %39 = load ptr, ptr %5, align 8
  %40 = getelementptr inbounds %struct.H5FS_t, ptr %39, i32 0, i32 17
  %41 = load ptr, ptr %40, align 8
  %42 = getelementptr inbounds %struct.H5FS_sinfo_t, ptr %41, i32 0, i32 12
  %43 = load ptr, ptr %42, align 8
  %44 = icmp ne ptr %43, null
  br i1 %44, label %45, label %140

45:                                               ; preds = %38
  %46 = load ptr, ptr %5, align 8
  %47 = getelementptr inbounds %struct.H5FS_t, ptr %46, i32 0, i32 17
  %48 = load ptr, ptr %47, align 8
  %49 = getelementptr inbounds %struct.H5FS_sinfo_t, ptr %48, i32 0, i32 12
  %50 = load ptr, ptr %49, align 8
  %51 = call ptr @H5SL_last(ptr noundef %50)
  store ptr %51, ptr %11, align 8
  %52 = icmp ne ptr null, %51
  br i1 %52, label %53, label %139

53:                                               ; preds = %45
  %54 = load ptr, ptr %11, align 8
  %55 = call ptr @H5SL_item(ptr noundef %54)
  store ptr %55, ptr %12, align 8
  %56 = load ptr, ptr %5, align 8
  %57 = getelementptr inbounds %struct.H5FS_t, ptr %56, i32 0, i32 26
  %58 = load ptr, ptr %57, align 8
  %59 = load ptr, ptr %12, align 8
  %60 = getelementptr inbounds %struct.H5FS_section_info_t, ptr %59, i32 0, i32 2
  %61 = load i32, ptr %60, align 8
  %62 = zext i32 %61 to i64
  %63 = getelementptr inbounds %struct.H5FS_section_class_t, ptr %58, i64 %62
  store ptr %63, ptr %13, align 8
  %64 = load ptr, ptr %13, align 8
  %65 = getelementptr inbounds %struct.H5FS_section_class_t, ptr %64, i32 0, i32 11
  %66 = load ptr, ptr %65, align 8
  %67 = icmp ne ptr %66, null
  br i1 %67, label %68, label %138

68:                                               ; preds = %53
  %69 = load ptr, ptr %13, align 8
  %70 = getelementptr inbounds %struct.H5FS_section_class_t, ptr %69, i32 0, i32 11
  %71 = load ptr, ptr %70, align 8
  %72 = load ptr, ptr %12, align 8
  %73 = load ptr, ptr %6, align 8
  %74 = call i32 %71(ptr noundef %72, ptr noundef %73)
  store i32 %74, ptr %9, align 4
  %75 = icmp slt i32 %74, 0
  br i1 %75, label %76, label %91

76:                                               ; preds = %68
  br label %77

77:                                               ; preds = %76
  br label %78

78:                                               ; preds = %77
  br label %79

79:                                               ; preds = %78
  %80 = load i64, ptr @H5E_FSPACE_g, align 8
  %81 = load i64, ptr @H5E_CANTSHRINK_g, align 8
  %82 = call i32 (ptr, ptr, i32, i64, i64, ptr, ...) @H5E_printf_stack(ptr noundef @.str.3, ptr noundef @__func__.H5FS_sect_try_shrink_eoa, i32 noundef 2246, i64 noundef %80, i64 noundef %81, ptr noundef @.str.21)
  br label %83

83:                                               ; preds = %79
  store i8 1, ptr %10, align 1
  %84 = load i8, ptr %10, align 1
  %85 = trunc i8 %84 to i1
  %86 = zext i1 %85 to i8
  store i8 %86, ptr %10, align 1
  br label %87

87:                                               ; preds = %83
  br label %88

88:                                               ; preds = %87
  store i32 -1, ptr %9, align 4
  br label %141

89:                                               ; No predecessors!
  br label %90

90:                                               ; preds = %89
  br label %91

91:                                               ; preds = %90, %68
  %92 = load i32, ptr %9, align 4
  %93 = icmp sgt i32 %92, 0
  br i1 %93, label %94, label %137

94:                                               ; preds = %91
  %95 = load ptr, ptr %5, align 8
  %96 = load ptr, ptr %12, align 8
  %97 = call i32 @H5FS__sect_remove_real(ptr noundef %95, ptr noundef %96)
  %98 = icmp slt i32 %97, 0
  br i1 %98, label %99, label %114

99:                                               ; preds = %94
  br label %100

100:                                              ; preds = %99
  br label %101

101:                                              ; preds = %100
  br label %102

102:                                              ; preds = %101
  %103 = load i64, ptr @H5E_FSPACE_g, align 8
  %104 = load i64, ptr @H5E_CANTRELEASE_g, align 8
  %105 = call i32 (ptr, ptr, i32, i64, i64, ptr, ...) @H5E_printf_stack(ptr noundef @.str.3, ptr noundef @__func__.H5FS_sect_try_shrink_eoa, i32 noundef 2253, i64 noundef %103, i64 noundef %104, ptr noundef @.str.13)
  br label %106

106:                                              ; preds = %102
  store i8 1, ptr %10, align 1
  %107 = load i8, ptr %10, align 1
  %108 = trunc i8 %107 to i1
  %109 = zext i1 %108 to i8
  store i8 %109, ptr %10, align 1
  br label %110

110:                                              ; preds = %106
  br label %111

111:                                              ; preds = %110
  store i32 -1, ptr %9, align 4
  br label %141

112:                                              ; No predecessors!
  br label %113

113:                                              ; preds = %112
  br label %114

114:                                              ; preds = %113, %94
  store i8 1, ptr %8, align 1
  %115 = load ptr, ptr %13, align 8
  %116 = getelementptr inbounds %struct.H5FS_section_class_t, ptr %115, i32 0, i32 12
  %117 = load ptr, ptr %116, align 8
  %118 = load ptr, ptr %6, align 8
  %119 = call i32 %117(ptr noundef %12, ptr noundef %118)
  %120 = icmp slt i32 %119, 0
  br i1 %120, label %121, label %136

121:                                              ; preds = %114
  br label %122

122:                                              ; preds = %121
  br label %123

123:                                              ; preds = %122
  br label %124

124:                                              ; preds = %123
  %125 = load i64, ptr @H5E_FSPACE_g, align 8
  %126 = load i64, ptr @H5E_CANTINSERT_g, align 8
  %127 = call i32 (ptr, ptr, i32, i64, i64, ptr, ...) @H5E_printf_stack(ptr noundef @.str.3, ptr noundef @__func__.H5FS_sect_try_shrink_eoa, i32 noundef 2258, i64 noundef %125, i64 noundef %126, ptr noundef @.str.22)
  br label %128

128:                                              ; preds = %124
  store i8 1, ptr %10, align 1
  %129 = load i8, ptr %10, align 1
  %130 = trunc i8 %129 to i1
  %131 = zext i1 %130 to i8
  store i8 %131, ptr %10, align 1
  br label %132

132:                                              ; preds = %128
  br label %133

133:                                              ; preds = %132
  store i32 -1, ptr %9, align 4
  br label %141

134:                                              ; No predecessors!
  br label %135

135:                                              ; preds = %134
  br label %136

136:                                              ; preds = %135, %114
  br label %137

137:                                              ; preds = %136, %91
  br label %138

138:                                              ; preds = %137, %53
  br label %139

139:                                              ; preds = %138, %45
  br label %140

140:                                              ; preds = %139, %38, %33
  br label %141

141:                                              ; preds = %140, %133, %111, %88, %30
  %142 = load i8, ptr %7, align 1
  %143 = trunc i8 %142 to i1
  br i1 %143, label %144, label %164

144:                                              ; preds = %141
  %145 = load ptr, ptr %4, align 8
  %146 = load ptr, ptr %5, align 8
  %147 = load i8, ptr %8, align 1
  %148 = trunc i8 %147 to i1
  %149 = call i32 @H5FS__sinfo_unlock(ptr noundef %145, ptr noundef %146, i1 noundef zeroext %148)
  %150 = icmp slt i32 %149, 0
  br i1 %150, label %151, label %164

151:                                              ; preds = %144
  br label %152

152:                                              ; preds = %151
  br label %153

153:                                              ; preds = %152
  br label %154

154:                                              ; preds = %153
  %155 = load i64, ptr @H5E_FSPACE_g, align 8
  %156 = load i64, ptr @H5E_CANTRELEASE_g, align 8
  %157 = call i32 (ptr, ptr, i32, i64, i64, ptr, ...) @H5E_printf_stack(ptr noundef @.str.3, ptr noundef @__func__.H5FS_sect_try_shrink_eoa, i32 noundef 2267, i64 noundef %155, i64 noundef %156, ptr noundef @.str.9)
  br label %158

158:                                              ; preds = %154
  store i8 1, ptr %10, align 1
  %159 = load i8, ptr %10, align 1
  %160 = trunc i8 %159 to i1
  %161 = zext i1 %160 to i8
  store i8 %161, ptr %10, align 1
  br label %162

162:                                              ; preds = %158
  store i32 -1, ptr %9, align 4
  br label %163

163:                                              ; preds = %162
  br label %164

164:                                              ; preds = %163, %144, %141
  %165 = load i32, ptr %9, align 4
  ret i32 %165
}