; Function Attrs: nounwind uwtable
define i32 @H5FS_sect_try_shrink_eoa(ptr noundef %0, ptr noundef %1, ptr noundef %2) local_unnamed_addr #0 {
  %4 = alloca ptr, align 8
  %5 = tail call fastcc i32 @H5FS__sinfo_lock(ptr noundef %0, ptr noundef %1, i32 noundef 0)
  %6 = icmp sgt i32 %5, -1
  br i1 %6, label %7, label %49

7:                                                ; preds = %3
  %8 = getelementptr inbounds i8, ptr %1, i64 360
  %9 = load ptr, ptr %8, align 8
  %.not = icmp eq ptr %9, null
  br i1 %.not, label %53, label %10

10:                                               ; preds = %7
  %11 = getelementptr inbounds i8, ptr %9, i64 320
  %12 = load ptr, ptr %11, align 8
  %.not30 = icmp eq ptr %12, null
  br i1 %.not30, label %53, label %13

13:                                               ; preds = %10
  %14 = tail call ptr @H5SL_last(ptr noundef nonnull %12) #6
  %.not31 = icmp eq ptr %14, null
  br i1 %.not31, label %53, label %15

15:                                               ; preds = %13
  %16 = tail call ptr @H5SL_item(ptr noundef nonnull %14) #6
  store ptr %16, ptr %4, align 8
  %17 = getelementptr inbounds i8, ptr %1, i64 408
  %18 = load ptr, ptr %17, align 8
  %19 = getelementptr inbounds i8, ptr %16, i64 16
  %20 = load i32, ptr %19, align 8
  %21 = zext i32 %20 to i64
  %22 = getelementptr inbounds %struct.H5FS_section_class_t, ptr %18, i64 %21
  %23 = getelementptr inbounds i8, ptr %22, i64 88
  %24 = load ptr, ptr %23, align 8
  %.not32 = icmp eq ptr %24, null
  br i1 %.not32, label %53, label %25

25:                                               ; preds = %15
  %26 = tail call i32 %24(ptr noundef nonnull %16, ptr noundef %2) #6
  %27 = icmp slt i32 %26, 0
  br i1 %27, label %28, label %32

28:                                               ; preds = %25
  %29 = load i64, ptr @H5E_FSPACE_g, align 8
  %30 = load i64, ptr @H5E_CANTSHRINK_g, align 8
  %31 = tail call i32 (ptr, ptr, i32, i64, i64, ptr, ...) @H5E_printf_stack(ptr noundef nonnull @.str.3, ptr noundef nonnull @__func__.H5FS_sect_try_shrink_eoa, i32 noundef 2246, i64 noundef %29, i64 noundef %30, ptr noundef nonnull @.str.21) #6
  br label %53

32:                                               ; preds = %25
  %.not33 = icmp eq i32 %26, 0
  br i1 %.not33, label %53, label %33

33:                                               ; preds = %32
  %34 = tail call fastcc i32 @H5FS__sect_remove_real(ptr noundef nonnull %1, ptr noundef nonnull %16)
  %35 = icmp slt i32 %34, 0
  br i1 %35, label %36, label %40

36:                                               ; preds = %33
  %37 = load i64, ptr @H5E_FSPACE_g, align 8
  %38 = load i64, ptr @H5E_CANTRELEASE_g, align 8
  %39 = tail call i32 (ptr, ptr, i32, i64, i64, ptr, ...) @H5E_printf_stack(ptr noundef nonnull @.str.3, ptr noundef nonnull @__func__.H5FS_sect_try_shrink_eoa, i32 noundef 2253, i64 noundef %37, i64 noundef %38, ptr noundef nonnull @.str.13) #6
  br label %53

40:                                               ; preds = %33
  %41 = getelementptr inbounds i8, ptr %22, i64 96
  %42 = load ptr, ptr %41, align 8
  %43 = call i32 %42(ptr noundef nonnull %4, ptr noundef %2) #6
  %44 = icmp slt i32 %43, 0
  br i1 %44, label %45, label %53

45:                                               ; preds = %40
  %46 = load i64, ptr @H5E_FSPACE_g, align 8
  %47 = load i64, ptr @H5E_CANTINSERT_g, align 8
  %48 = call i32 (ptr, ptr, i32, i64, i64, ptr, ...) @H5E_printf_stack(ptr noundef nonnull @.str.3, ptr noundef nonnull @__func__.H5FS_sect_try_shrink_eoa, i32 noundef 2258, i64 noundef %46, i64 noundef %47, ptr noundef nonnull @.str.22) #6
  br label %53

49:                                               ; preds = %3
  %50 = load i64, ptr @H5E_FSPACE_g, align 8
  %51 = load i64, ptr @H5E_CANTGET_g, align 8
  %52 = tail call i32 (ptr, ptr, i32, i64, i64, ptr, ...) @H5E_printf_stack(ptr noundef nonnull @.str.3, ptr noundef nonnull @__func__.H5FS_sect_try_shrink_eoa, i32 noundef 2228, i64 noundef %50, i64 noundef %51, ptr noundef nonnull @.str.7) #6
  br label %60

53:                                               ; preds = %7, %10, %15, %40, %32, %13, %45, %36, %28
  %.024.ph = phi i32 [ 0, %7 ], [ 0, %10 ], [ 0, %13 ], [ 0, %15 ], [ 0, %32 ], [ %26, %40 ], [ -1, %45 ], [ -1, %36 ], [ -1, %28 ]
  %.023.ph = phi i1 [ false, %7 ], [ false, %10 ], [ false, %13 ], [ false, %15 ], [ false, %32 ], [ true, %40 ], [ true, %45 ], [ false, %36 ], [ false, %28 ]
  %54 = call fastcc i32 @H5FS__sinfo_unlock(ptr noundef %0, ptr noundef nonnull %1, i1 noundef zeroext %.023.ph)
  %55 = icmp slt i32 %54, 0
  br i1 %55, label %56, label %60

56:                                               ; preds = %53
  %57 = load i64, ptr @H5E_FSPACE_g, align 8
  %58 = load i64, ptr @H5E_CANTRELEASE_g, align 8
  %59 = call i32 (ptr, ptr, i32, i64, i64, ptr, ...) @H5E_printf_stack(ptr noundef nonnull @.str.3, ptr noundef nonnull @__func__.H5FS_sect_try_shrink_eoa, i32 noundef 2267, i64 noundef %57, i64 noundef %58, ptr noundef nonnull @.str.9) #6
  br label %60

60:                                               ; preds = %49, %56, %53
  %.1 = phi i32 [ -1, %56 ], [ %.024.ph, %53 ], [ -1, %49 ]
  ret i32 %.1
}